target datalayout = "e-m:e-p270:32:32-p271:32:32-p272:64:64-i64:64-i128:128-f80:128-n8:16:32:64-S128"
target triple = "x86_64-pc-linux-gnu"

%struct.AVCodecContext = type { ptr, i32, i32, ptr, i32, i32, ptr, ptr, ptr, i64, i32, i32, ptr, i32, %struct.AVRational, %struct.AVRational, %struct.AVRational, i32, i32, i32, i32, i32, %struct.AVRational, i32, i32, i32, i32, i32, i32, i32, i32, i32, i32, i32, ptr, ptr, i32, float, float, float, float, float, float, float, float, float, i32, i32, i32, i32, i32, i32, i32, i32, i32, i32, i32, i32, ptr, ptr, ptr, i32, i32, i32, i32, i32, i32, i32, i32, i32, i32, %struct.AVChannelLayout, i32, i32, i32, i32, i32, i32, i32, i32, ptr, i32, i32, i32, float, float, i32, i32, i32, i32, i32, ptr, i64, i64, float, float, i32, i32, ptr, ptr, i32, i32, i32, i32, i32, ptr, ptr, ptr, ptr, i32, i32, [8 x i64], i32, i32, i32, i32, i32, i32, i32, ptr, ptr, i32, i32, i32, i32, i32, i32, i32, i32, i32, i32, ptr, ptr, i32, i32, ptr, ptr, ptr, ptr, i32, i32, i64, i32, i32, i64, ptr, i64, ptr, i32, ptr, i32 }
%struct.AVRational = type { i32, i32 }
%struct.AVChannelLayout = type { i32, i32, %union.anon.0, ptr }
%union.anon.0 = type { i64 }
%struct.SANMVideoContext = type { ptr, %struct.GetByteContext, i32, i32, i32, i32, [256 x i32], [768 x i16], i64, i32, i32, i32, i32, i32, ptr, ptr, ptr, ptr, ptr, ptr, i32, i32, i32, i32, i32, ptr, i32, i32, i64, i64, [256 x i16], [4 x i16], [256 x [16 x i8]], [256 x [64 x i8]], [65536 x i8], [256 x i8], [2 x [256 x [16 x i8]]], i16 }
%struct.GetByteContext = type { ptr, ptr, ptr }

@.str.2 = private unnamed_addr constant [23 x i8] c"Not enough extradata.\0A\00", align 1
@.str.3 = private unnamed_addr constant [27 x i8] c"Error allocating buffers.\0A\00", align 1
@glyph4_x = internal constant [16 x i8] c"\00\01\02\03\03\03\03\02\01\00\00\00\01\02\02\01", align 16
@glyph4_y = internal constant [16 x i8] c"\00\00\00\00\01\02\03\03\03\03\02\01\01\01\02\02", align 16
@glyph8_x = internal constant [16 x i8] c"\00\02\05\07\07\07\07\07\07\05\02\00\00\00\00\00", align 16
@glyph8_y = internal constant [16 x i8] c"\00\00\00\00\01\03\04\06\07\07\07\07\06\04\03\01", align 16

; Function Attrs: nounwind uwtable
define internal void @init_sizes(ptr noundef %0, i32 noundef %1, i32 noundef %2) #1 {
  %4 = alloca ptr, align 8
  %5 = alloca i32, align 4
  %6 = alloca i32, align 4
  store ptr %0, ptr %4, align 8, !tbaa !29
  store i32 %1, ptr %5, align 4, !tbaa !44
  store i32 %2, ptr %6, align 4, !tbaa !44
  %7 = load i32, ptr %5, align 4, !tbaa !44
  %8 = load ptr, ptr %4, align 8, !tbaa !29
  %9 = getelementptr inbounds nuw %struct.SANMVideoContext, ptr %8, i32 0, i32 9
  store i32 %7, ptr %9, align 8, !tbaa !80
  %10 = load i32, ptr %6, align 4, !tbaa !44
  %11 = load ptr, ptr %4, align 8, !tbaa !29
  %12 = getelementptr inbounds nuw %struct.SANMVideoContext, ptr %11, i32 0, i32 10
  store i32 %10, ptr %12, align 4, !tbaa !81
  %13 = load i32, ptr %5, align 4, !tbaa !44
  %14 = load i32, ptr %6, align 4, !tbaa !44
  %15 = mul nsw i32 %13, %14
  %16 = sext i32 %15 to i64
  %17 = load ptr, ptr %4, align 8, !tbaa !29
  %18 = getelementptr inbounds nuw %struct.SANMVideoContext, ptr %17, i32 0, i32 28
  store i64 %16, ptr %18, align 8, !tbaa !75
  %19 = load i32, ptr %5, align 4, !tbaa !44
  %20 = add nsw i32 %19, 8
  %21 = sub nsw i32 %20, 1
  %22 = and i32 %21, -8
  %23 = load ptr, ptr %4, align 8, !tbaa !29
  %24 = getelementptr inbounds nuw %struct.SANMVideoContext, ptr %23, i32 0, i32 11
  store i32 %22, ptr %24, align 8, !tbaa !82
  %25 = load i32, ptr %6, align 4, !tbaa !44
  %26 = add nsw i32 %25, 8
  %27 = sub nsw i32 %26, 1
  %28 = and i32 %27, -8
  %29 = load ptr, ptr %4, align 8, !tbaa !29
  %30 = getelementptr inbounds nuw %struct.SANMVideoContext, ptr %29, i32 0, i32 12
  store i32 %28, ptr %30, align 4, !tbaa !83
  %31 = load ptr, ptr %4, align 8, !tbaa !29
  %32 = getelementptr inbounds nuw %struct.SANMVideoContext, ptr %31, i32 0, i32 11
  %33 = load i32, ptr %32, align 8, !tbaa !82
  %34 = load ptr, ptr %4, align 8, !tbaa !29
  %35 = getelementptr inbounds nuw %struct.SANMVideoContext, ptr %34, i32 0, i32 12
  %36 = load i32, ptr %35, align 4, !tbaa !83
  %37 = mul nsw i32 %33, %36
  %38 = sext i32 %37 to i64
  %39 = mul i64 %38, 2
  %40 = load ptr, ptr %4, align 8, !tbaa !29
  %41 = getelementptr inbounds nuw %struct.SANMVideoContext, ptr %40, i32 0, i32 29
  store i64 %39, ptr %41, align 8, !tbaa !61
  %42 = load i32, ptr %5, align 4, !tbaa !44
  %43 = sext i32 %42 to i64
  %44 = load ptr, ptr %4, align 8, !tbaa !29
  %45 = getelementptr inbounds nuw %struct.SANMVideoContext, ptr %44, i32 0, i32 8
  store i64 %43, ptr %45, align 8, !tbaa !84
  ret void
}

; Function Attrs: cold nounwind optsize uwtable
define internal i32 @decode_init(ptr noundef %0) #0 {
  %2 = alloca i32, align 4
  %3 = alloca ptr, align 8
  %4 = alloca ptr, align 8
  %5 = alloca i32, align 4
  %6 = alloca i32, align 4
  store ptr %0, ptr %3, align 8, !tbaa !4
  call void @llvm.lifetime.start.p0(i64 8, ptr %4) #10
  %7 = load ptr, ptr %3, align 8, !tbaa !4
  %8 = getelementptr inbounds nuw %struct.AVCodecContext, ptr %7, i32 0, i32 6
  %9 = load ptr, ptr %8, align 8, !tbaa !9
  store ptr %9, ptr %4, align 8, !tbaa !29
  %10 = load ptr, ptr %3, align 8, !tbaa !4
  %11 = load ptr, ptr %4, align 8, !tbaa !29
  %12 = getelementptr inbounds nuw %struct.SANMVideoContext, ptr %11, i32 0, i32 0
  store ptr %10, ptr %12, align 8, !tbaa !31
  %13 = load ptr, ptr %3, align 8, !tbaa !4
  %14 = getelementptr inbounds nuw %struct.AVCodecContext, ptr %13, i32 0, i32 13
  %15 = load i32, ptr %14, align 8, !tbaa !36
  %16 = icmp ne i32 %15, 0
  %17 = xor i1 %16, true
  %18 = zext i1 %17 to i32
  %19 = load ptr, ptr %4, align 8, !tbaa !29
  %20 = getelementptr inbounds nuw %struct.SANMVideoContext, ptr %19, i32 0, i32 2
  store i32 %18, ptr %20, align 8, !tbaa !37
  %21 = load ptr, ptr %4, align 8, !tbaa !29
  %22 = getelementptr inbounds nuw %struct.SANMVideoContext, ptr %21, i32 0, i32 2
  %23 = load i32, ptr %22, align 8, !tbaa !37
  %24 = icmp ne i32 %23, 0
  br i1 %24, label %32, label %25

25:                                               ; preds = %1
  %26 = load ptr, ptr %3, align 8, !tbaa !4
  %27 = getelementptr inbounds nuw %struct.AVCodecContext, ptr %26, i32 0, i32 13
  %28 = load i32, ptr %27, align 8, !tbaa !36
  %29 = icmp slt i32 %28, 1026
  br i1 %29, label %30, label %32

30:                                               ; preds = %25
  %31 = load ptr, ptr %3, align 8, !tbaa !4
  call void (ptr, i32, ptr, ...) @av_log(ptr noundef %31, i32 noundef 16, ptr noundef @.str.2)
  store i32 -1094995529, ptr %2, align 4
  store i32 1, ptr %5, align 4
  br label %108

32:                                               ; preds = %25, %1
  %33 = load ptr, ptr %4, align 8, !tbaa !29
  %34 = getelementptr inbounds nuw %struct.SANMVideoContext, ptr %33, i32 0, i32 2
  %35 = load i32, ptr %34, align 8, !tbaa !37
  %36 = icmp ne i32 %35, 0
  %37 = select i1 %36, i32 37, i32 11
  %38 = load ptr, ptr %3, align 8, !tbaa !4
  %39 = getelementptr inbounds nuw %struct.AVCodecContext, ptr %38, i32 0, i32 23
  store i32 %37, ptr %39, align 8, !tbaa !38
  %40 = load ptr, ptr %4, align 8, !tbaa !29
  %41 = load ptr, ptr %3, align 8, !tbaa !4
  %42 = getelementptr inbounds nuw %struct.AVCodecContext, ptr %41, i32 0, i32 18
  %43 = load i32, ptr %42, align 8, !tbaa !39
  %44 = load ptr, ptr %3, align 8, !tbaa !4
  %45 = getelementptr inbounds nuw %struct.AVCodecContext, ptr %44, i32 0, i32 19
  %46 = load i32, ptr %45, align 4, !tbaa !40
  call void @init_sizes(ptr noundef %40, i32 noundef %43, i32 noundef %46)
  %47 = load ptr, ptr %4, align 8, !tbaa !29
  %48 = call i32 @init_buffers(ptr noundef %47) #11
  %49 = icmp ne i32 %48, 0
  br i1 %49, label %50, label %52

50:                                               ; preds = %32
  %51 = load ptr, ptr %3, align 8, !tbaa !4
  call void (ptr, i32, ptr, ...) @av_log(ptr noundef %51, i32 noundef 16, ptr noundef @.str.3)
  store i32 -12, ptr %2, align 4
  store i32 1, ptr %5, align 4
  br label %108

52:                                               ; preds = %32
  %53 = load ptr, ptr %4, align 8, !tbaa !29
  %54 = getelementptr inbounds nuw %struct.SANMVideoContext, ptr %53, i32 0, i32 32
  %55 = getelementptr inbounds [256 x [16 x i8]], ptr %54, i64 0, i64 0
  %56 = getelementptr inbounds [16 x i8], ptr %55, i64 0, i64 0
  call void @make_glyphs(ptr noundef %56, ptr noundef @glyph4_x, ptr noundef @glyph4_y, i32 noundef 4)
  %57 = load ptr, ptr %4, align 8, !tbaa !29
  %58 = getelementptr inbounds nuw %struct.SANMVideoContext, ptr %57, i32 0, i32 33
  %59 = getelementptr inbounds [256 x [64 x i8]], ptr %58, i64 0, i64 0
  %60 = getelementptr inbounds [64 x i8], ptr %59, i64 0, i64 0
  call void @make_glyphs(ptr noundef %60, ptr noundef @glyph8_x, ptr noundef @glyph8_y, i32 noundef 8)
  %61 = load ptr, ptr %4, align 8, !tbaa !29
  %62 = getelementptr inbounds nuw %struct.SANMVideoContext, ptr %61, i32 0, i32 2
  %63 = load i32, ptr %62, align 8, !tbaa !37
  %64 = icmp ne i32 %63, 0
  br i1 %64, label %105, label %65

65:                                               ; preds = %52
  call void @llvm.lifetime.start.p0(i64 4, ptr %6) #10
  %66 = load ptr, ptr %3, align 8, !tbaa !4
  %67 = getelementptr inbounds nuw %struct.AVCodecContext, ptr %66, i32 0, i32 12
  %68 = load ptr, ptr %67, align 8, !tbaa !41
  %69 = load i16, ptr %68, align 1, !tbaa !42
  %70 = zext i16 %69 to i32
  %71 = load ptr, ptr %4, align 8, !tbaa !29
  %72 = getelementptr inbounds nuw %struct.SANMVideoContext, ptr %71, i32 0, i32 3
  store i32 %70, ptr %72, align 4, !tbaa !43
  store i32 0, ptr %6, align 4, !tbaa !44
  br label %73

73:                                               ; preds = %92, %65
  %74 = load i32, ptr %6, align 4, !tbaa !44
  %75 = icmp slt i32 %74, 256
  br i1 %75, label %76, label %95

76:                                               ; preds = %73
  %77 = load ptr, ptr %3, align 8, !tbaa !4
  %78 = getelementptr inbounds nuw %struct.AVCodecContext, ptr %77, i32 0, i32 12
  %79 = load ptr, ptr %78, align 8, !tbaa !41
  %80 = getelementptr inbounds i8, ptr %79, i64 2
  %81 = load i32, ptr %6, align 4, !tbaa !44
  %82 = mul nsw i32 %81, 4
  %83 = sext i32 %82 to i64
  %84 = getelementptr inbounds i8, ptr %80, i64 %83
  %85 = load i32, ptr %84, align 1, !tbaa !42
  %86 = or i32 -16777216, %85
  %87 = load ptr, ptr %4, align 8, !tbaa !29
  %88 = getelementptr inbounds nuw %struct.SANMVideoContext, ptr %87, i32 0, i32 6
  %89 = load i32, ptr %6, align 4, !tbaa !44
  %90 = sext i32 %89 to i64
  %91 = getelementptr inbounds [256 x i32], ptr %88, i64 0, i64 %90
  store i32 %86, ptr %91, align 4, !tbaa !44
  br label %92

92:                                               ; preds = %76
  %93 = load i32, ptr %6, align 4, !tbaa !44
  %94 = add nsw i32 %93, 1
  store i32 %94, ptr %6, align 4, !tbaa !44
  br label %73, !llvm.loop !45

95:                                               ; preds = %73
  %96 = load ptr, ptr %4, align 8, !tbaa !29
  %97 = getelementptr inbounds nuw %struct.SANMVideoContext, ptr %96, i32 0, i32 3
  %98 = load i32, ptr %97, align 4, !tbaa !43
  %99 = icmp slt i32 %98, 2
  br i1 %99, label %100, label %104

100:                                              ; preds = %95
  %101 = load ptr, ptr %4, align 8, !tbaa !29
  %102 = getelementptr inbounds nuw %struct.SANMVideoContext, ptr %101, i32 0, i32 6
  %103 = getelementptr inbounds [256 x i32], ptr %102, i64 0, i64 0
  store i32 -16777216, ptr %103, align 8, !tbaa !44
  br label %104

104:                                              ; preds = %100, %95
  call void @llvm.lifetime.end.p0(i64 4, ptr %6) #10
  br label %105

105:                                              ; preds = %104, %52
  %106 = load ptr, ptr %4, align 8, !tbaa !29
  %107 = getelementptr inbounds nuw %struct.SANMVideoContext, ptr %106, i32 0, i32 37
  store i16 -1, ptr %107, align 8, !tbaa !47
  store i32 0, ptr %2, align 4
  store i32 1, ptr %5, align 4
  br label %108

108:                                              ; preds = %105, %50, %30
  call void @llvm.lifetime.end.p0(i64 8, ptr %4) #10
  %109 = load i32, ptr %2, align 4
  ret i32 %109
}