; Function Attrs: cold nounwind optsize uwtable
define internal range(i32 -1094995529, 1) i32 @decode_init(ptr noundef %0) #0 {
  %2 = getelementptr inbounds nuw i8, ptr %0, i64 32
  %3 = load ptr, ptr %2, align 8, !tbaa !4
  store ptr %0, ptr %3, align 8, !tbaa !27
  %4 = getelementptr inbounds nuw i8, ptr %0, i64 80
  %5 = load i32, ptr %4, align 8, !tbaa !33
  %.not = icmp eq i32 %5, 0
  %6 = zext i1 %.not to i32
  %7 = getelementptr inbounds nuw i8, ptr %3, i64 32
  store i32 %6, ptr %7, align 8, !tbaa !34
  %8 = icmp slt i32 %5, 1026
  %or.cond = xor i1 %.not, %8
  br i1 %or.cond, label %9, label %10

9:                                                ; preds = %1
  tail call void (ptr, i32, ptr, ...) @av_log(ptr noundef nonnull %0, i32 noundef 16, ptr noundef nonnull @.str.2) #12
  br label %59

10:                                               ; preds = %1
  %11 = select i1 %.not, i32 37, i32 11
  %12 = getelementptr inbounds nuw i8, ptr %0, i64 136
  store i32 %11, ptr %12, align 8, !tbaa !35
  %13 = getelementptr inbounds nuw i8, ptr %0, i64 112
  %14 = load i32, ptr %13, align 8, !tbaa !36
  %15 = getelementptr inbounds nuw i8, ptr %0, i64 116
  %16 = load i32, ptr %15, align 4, !tbaa !37
  %17 = getelementptr inbounds nuw i8, ptr %3, i64 2616
  store i32 %14, ptr %17, align 8, !tbaa !38
  %18 = getelementptr inbounds nuw i8, ptr %3, i64 2620
  store i32 %16, ptr %18, align 4, !tbaa !39
  %19 = mul nsw i32 %16, %14
  %20 = sext i32 %19 to i64
  %21 = getelementptr inbounds nuw i8, ptr %3, i64 2728
  store i64 %20, ptr %21, align 8, !tbaa !40
  %22 = add nsw i32 %14, 7
  %23 = and i32 %22, -8
  %24 = getelementptr inbounds nuw i8, ptr %3, i64 2624
  store i32 %23, ptr %24, align 8, !tbaa !41
  %25 = add nsw i32 %16, 7
  %26 = and i32 %25, -8
  %27 = getelementptr inbounds nuw i8, ptr %3, i64 2628
  store i32 %26, ptr %27, align 4, !tbaa !42
  %28 = mul nsw i32 %26, %23
  %29 = sext i32 %28 to i64
  %30 = shl nsw i64 %29, 1
  %31 = getelementptr inbounds nuw i8, ptr %3, i64 2736
  store i64 %30, ptr %31, align 8, !tbaa !43
  %32 = sext i32 %14 to i64
  %33 = getelementptr inbounds nuw i8, ptr %3, i64 2608
  store i64 %32, ptr %33, align 8, !tbaa !44
  %34 = tail call fastcc i32 @init_buffers(ptr noundef nonnull %3) #13
  %.not31 = icmp eq i32 %34, 0
  br i1 %.not31, label %36, label %35

35:                                               ; preds = %10
  tail call void (ptr, i32, ptr, ...) @av_log(ptr noundef nonnull %0, i32 noundef 16, ptr noundef nonnull @.str.3) #12
  br label %59

36:                                               ; preds = %10
  %37 = getelementptr inbounds nuw i8, ptr %3, i64 3264
  tail call fastcc void @make_glyphs(ptr noundef nonnull %37, ptr noundef nonnull @glyph4_x, ptr noundef nonnull @glyph4_y, i32 noundef 4)
  %38 = getelementptr inbounds nuw i8, ptr %3, i64 7360
  tail call fastcc void @make_glyphs(ptr noundef nonnull %38, ptr noundef nonnull @glyph8_x, ptr noundef nonnull @glyph8_y, i32 noundef 8)
  %39 = load i32, ptr %7, align 8, !tbaa !34
  %.not32 = icmp eq i32 %39, 0
  br i1 %.not32, label %40, label %57

40:                                               ; preds = %36
  %41 = getelementptr inbounds nuw i8, ptr %0, i64 72
  %42 = load ptr, ptr %41, align 8, !tbaa !45
  %43 = load i16, ptr %42, align 1, !tbaa !46
  %44 = zext i16 %43 to i32
  %45 = getelementptr inbounds nuw i8, ptr %3, i64 36
  store i32 %44, ptr %45, align 4, !tbaa !47
  %46 = getelementptr inbounds nuw i8, ptr %42, i64 2
  %47 = getelementptr inbounds nuw i8, ptr %3, i64 48
  br label %48

48:                                               ; preds = %40, %48
  %indvars.iv = phi i64 [ 0, %40 ], [ %indvars.iv.next, %48 ]
  %49 = shl nuw nsw i64 %indvars.iv, 2
  %50 = getelementptr inbounds nuw i8, ptr %46, i64 %49
  %51 = load i32, ptr %50, align 1, !tbaa !46
  %52 = or i32 %51, -16777216
  %53 = getelementptr inbounds nuw [256 x i32], ptr %47, i64 0, i64 %indvars.iv
  store i32 %52, ptr %53, align 4, !tbaa !48
  %indvars.iv.next = add nuw nsw i64 %indvars.iv, 1
  %exitcond.not = icmp eq i64 %indvars.iv.next, 256
  br i1 %exitcond.not, label %54, label %48, !llvm.loop !49

54:                                               ; preds = %48
  %55 = icmp ult i16 %43, 2
  br i1 %55, label %56, label %57

56:                                               ; preds = %54
  store i32 -16777216, ptr %47, align 8, !tbaa !48
  br label %57

57:                                               ; preds = %54, %56, %36
  %58 = getelementptr inbounds nuw i8, ptr %3, i64 97728
  store i16 -1, ptr %58, align 8, !tbaa !51
  br label %59

59:                                               ; preds = %57, %35, %9
  %.029 = phi i32 [ -12, %35 ], [ 0, %57 ], [ -1094995529, %9 ]
  ret i32 %.029
}